target datalayout = "e-m:e-p270:32:32-p271:32:32-p272:64:64-i64:64-i128:128-f80:128-n8:16:32:64-S128"
target triple = "x86_64-pc-linux-gnu"

%struct.jpeg_compress_struct = type { ptr, ptr, ptr, ptr, i32, i32, ptr, i32, i32, i32, i32, double, i32, i32, i32, ptr, [4 x ptr], [4 x ptr], [4 x ptr], [16 x i8], [16 x i8], [16 x i8], i32, ptr, i32, i32, i32, i32, i32, i32, i32, i32, i32, i8, i8, i8, i16, i16, i32, i32, i32, i32, i32, i32, i32, [4 x ptr], i32, i32, i32, [10 x i32], i32, i32, i32, i32, ptr, ptr, ptr, ptr, ptr, ptr, ptr, ptr, ptr, ptr, i32 }
%struct.jpeg_error_mgr = type { ptr, ptr, ptr, ptr, ptr, i32, %union.anon, i32, i64, ptr, i32, ptr, i32, i32 }
%union.anon = type { [8 x i32], [48 x i8] }
%struct.jpeg_memory_mgr = type { ptr, ptr, ptr, ptr, ptr, ptr, ptr, ptr, ptr, ptr, ptr, i64, i64 }
%struct.my_coef_controller = type { %struct.jpeg_c_coef_controller, i32, i32, i32, i32, [10 x ptr], [10 x ptr] }
%struct.jpeg_c_coef_controller = type { ptr, ptr, ptr, ptr }
%struct.jpeg_component_info = type { i32, i32, i32, i32, i32, i32, i32, i32, i32, i32, i32, i32, i32, i32, i32, i32, i32, i32, i32, ptr, ptr }

; Function Attrs: nounwind uwtable
define void @jinit_c_coef_controller(ptr noundef %0, i32 noundef %1) #0 {
  %3 = alloca ptr, align 8
  %4 = alloca i32, align 4
  %5 = alloca ptr, align 8
  %6 = alloca i32, align 4
  %7 = alloca ptr, align 8
  %8 = alloca ptr, align 8
  %9 = alloca i32, align 4
  store ptr %0, ptr %3, align 8, !tbaa !3
  store i32 %1, ptr %4, align 4, !tbaa !8
  call void @llvm.lifetime.start.p0(i64 8, ptr %5) #4
  %10 = load ptr, ptr %3, align 8, !tbaa !3
  %11 = getelementptr inbounds nuw %struct.jpeg_compress_struct, ptr %10, i32 0, i32 12
  %12 = load i32, ptr %11, align 8, !tbaa !10
  %13 = icmp ne i32 %12, 8
  br i1 %13, label %14, label %33

14:                                               ; preds = %2
  %15 = load ptr, ptr %3, align 8, !tbaa !3
  %16 = getelementptr inbounds nuw %struct.jpeg_compress_struct, ptr %15, i32 0, i32 0
  %17 = load ptr, ptr %16, align 8, !tbaa !27
  %18 = getelementptr inbounds nuw %struct.jpeg_error_mgr, ptr %17, i32 0, i32 5
  store i32 15, ptr %18, align 8, !tbaa !28
  %19 = load ptr, ptr %3, align 8, !tbaa !3
  %20 = getelementptr inbounds nuw %struct.jpeg_compress_struct, ptr %19, i32 0, i32 12
  %21 = load i32, ptr %20, align 8, !tbaa !10
  %22 = load ptr, ptr %3, align 8, !tbaa !3
  %23 = getelementptr inbounds nuw %struct.jpeg_compress_struct, ptr %22, i32 0, i32 0
  %24 = load ptr, ptr %23, align 8, !tbaa !27
  %25 = getelementptr inbounds nuw %struct.jpeg_error_mgr, ptr %24, i32 0, i32 6
  %26 = getelementptr inbounds [8 x i32], ptr %25, i64 0, i64 0
  store i32 %21, ptr %26, align 4, !tbaa !32
  %27 = load ptr, ptr %3, align 8, !tbaa !3
  %28 = getelementptr inbounds nuw %struct.jpeg_compress_struct, ptr %27, i32 0, i32 0
  %29 = load ptr, ptr %28, align 8, !tbaa !27
  %30 = getelementptr inbounds nuw %struct.jpeg_error_mgr, ptr %29, i32 0, i32 0
  %31 = load ptr, ptr %30, align 8, !tbaa !33
  %32 = load ptr, ptr %3, align 8, !tbaa !3
  call void %31(ptr noundef %32)
  br label %33

33:                                               ; preds = %14, %2
  %34 = load ptr, ptr %3, align 8, !tbaa !3
  %35 = getelementptr inbounds nuw %struct.jpeg_compress_struct, ptr %34, i32 0, i32 1
  %36 = load ptr, ptr %35, align 8, !tbaa !34
  %37 = getelementptr inbounds nuw %struct.jpeg_memory_mgr, ptr %36, i32 0, i32 0
  %38 = load ptr, ptr %37, align 8, !tbaa !35
  %39 = load ptr, ptr %3, align 8, !tbaa !3
  %40 = call ptr %38(ptr noundef %39, i32 noundef 1, i64 noundef 208)
  store ptr %40, ptr %5, align 8, !tbaa !37
  %41 = load ptr, ptr %5, align 8, !tbaa !37
  call void @llvm.memset.p0.i64(ptr align 8 %41, i8 0, i64 208, i1 false)
  %42 = load ptr, ptr %5, align 8, !tbaa !37
  %43 = load ptr, ptr %3, align 8, !tbaa !3
  %44 = getelementptr inbounds nuw %struct.jpeg_compress_struct, ptr %43, i32 0, i32 57
  store ptr %42, ptr %44, align 8, !tbaa !38
  %45 = load ptr, ptr %5, align 8, !tbaa !37
  %46 = getelementptr inbounds nuw %struct.my_coef_controller, ptr %45, i32 0, i32 0
  %47 = getelementptr inbounds nuw %struct.jpeg_c_coef_controller, ptr %46, i32 0, i32 0
  store ptr @start_pass_coef, ptr %47, align 8, !tbaa !39
  %48 = load i32, ptr %4, align 4, !tbaa !8
  %49 = icmp ne i32 %48, 0
  br i1 %49, label %50, label %102

50:                                               ; preds = %33
  call void @llvm.lifetime.start.p0(i64 4, ptr %6) #4
  call void @llvm.lifetime.start.p0(i64 8, ptr %7) #4
  store i32 0, ptr %6, align 4, !tbaa !8
  %51 = load ptr, ptr %3, align 8, !tbaa !3
  %52 = getelementptr inbounds nuw %struct.jpeg_compress_struct, ptr %51, i32 0, i32 15
  %53 = load ptr, ptr %52, align 8, !tbaa !42
  store ptr %53, ptr %7, align 8, !tbaa !37
  br label %54

54:                                               ; preds = %96, %50
  %55 = load i32, ptr %6, align 4, !tbaa !8
  %56 = load ptr, ptr %3, align 8, !tbaa !3
  %57 = getelementptr inbounds nuw %struct.jpeg_compress_struct, ptr %56, i32 0, i32 13
  %58 = load i32, ptr %57, align 4, !tbaa !43
  %59 = icmp slt i32 %55, %58
  br i1 %59, label %60, label %101

60:                                               ; preds = %54
  %61 = load ptr, ptr %3, align 8, !tbaa !3
  %62 = getelementptr inbounds nuw %struct.jpeg_compress_struct, ptr %61, i32 0, i32 1
  %63 = load ptr, ptr %62, align 8, !tbaa !34
  %64 = getelementptr inbounds nuw %struct.jpeg_memory_mgr, ptr %63, i32 0, i32 5
  %65 = load ptr, ptr %64, align 8, !tbaa !44
  %66 = load ptr, ptr %3, align 8, !tbaa !3
  %67 = load ptr, ptr %7, align 8, !tbaa !37
  %68 = getelementptr inbounds nuw %struct.jpeg_component_info, ptr %67, i32 0, i32 7
  %69 = load i32, ptr %68, align 4, !tbaa !45
  %70 = zext i32 %69 to i64
  %71 = load ptr, ptr %7, align 8, !tbaa !37
  %72 = getelementptr inbounds nuw %struct.jpeg_component_info, ptr %71, i32 0, i32 2
  %73 = load i32, ptr %72, align 8, !tbaa !47
  %74 = sext i32 %73 to i64
  %75 = call i64 @jround_up(i64 noundef %70, i64 noundef %74)
  %76 = trunc i64 %75 to i32
  %77 = load ptr, ptr %7, align 8, !tbaa !37
  %78 = getelementptr inbounds nuw %struct.jpeg_component_info, ptr %77, i32 0, i32 8
  %79 = load i32, ptr %78, align 8, !tbaa !48
  %80 = zext i32 %79 to i64
  %81 = load ptr, ptr %7, align 8, !tbaa !37
  %82 = getelementptr inbounds nuw %struct.jpeg_component_info, ptr %81, i32 0, i32 3
  %83 = load i32, ptr %82, align 4, !tbaa !49
  %84 = sext i32 %83 to i64
  %85 = call i64 @jround_up(i64 noundef %80, i64 noundef %84)
  %86 = trunc i64 %85 to i32
  %87 = load ptr, ptr %7, align 8, !tbaa !37
  %88 = getelementptr inbounds nuw %struct.jpeg_component_info, ptr %87, i32 0, i32 3
  %89 = load i32, ptr %88, align 4, !tbaa !49
  %90 = call ptr %65(ptr noundef %66, i32 noundef 1, i32 noundef 0, i32 noundef %76, i32 noundef %86, i32 noundef %89)
  %91 = load ptr, ptr %5, align 8, !tbaa !37
  %92 = getelementptr inbounds nuw %struct.my_coef_controller, ptr %91, i32 0, i32 6
  %93 = load i32, ptr %6, align 4, !tbaa !8
  %94 = sext i32 %93 to i64
  %95 = getelementptr inbounds [10 x ptr], ptr %92, i64 0, i64 %94
  store ptr %90, ptr %95, align 8, !tbaa !50
  br label %96

96:                                               ; preds = %60
  %97 = load i32, ptr %6, align 4, !tbaa !8
  %98 = add nsw i32 %97, 1
  store i32 %98, ptr %6, align 4, !tbaa !8
  %99 = load ptr, ptr %7, align 8, !tbaa !37
  %100 = getelementptr inbounds nuw %struct.jpeg_component_info, ptr %99, i32 1
  store ptr %100, ptr %7, align 8, !tbaa !37
  br label %54, !llvm.loop !52

101:                                              ; preds = %54
  call void @llvm.lifetime.end.p0(i64 8, ptr %7) #4
  call void @llvm.lifetime.end.p0(i64 4, ptr %6) #4
  br label %130

102:                                              ; preds = %33
  call void @llvm.lifetime.start.p0(i64 8, ptr %8) #4
  call void @llvm.lifetime.start.p0(i64 4, ptr %9) #4
  %103 = load ptr, ptr %3, align 8, !tbaa !3
  %104 = getelementptr inbounds nuw %struct.jpeg_compress_struct, ptr %103, i32 0, i32 1
  %105 = load ptr, ptr %104, align 8, !tbaa !34
  %106 = getelementptr inbounds nuw %struct.jpeg_memory_mgr, ptr %105, i32 0, i32 1
  %107 = load ptr, ptr %106, align 8, !tbaa !54
  %108 = load ptr, ptr %3, align 8, !tbaa !3
  %109 = call ptr %107(ptr noundef %108, i32 noundef 1, i64 noundef 1280)
  store ptr %109, ptr %8, align 8, !tbaa !55
  store i32 0, ptr %9, align 4, !tbaa !8
  br label %110

110:                                              ; preds = %123, %102
  %111 = load i32, ptr %9, align 4, !tbaa !8
  %112 = icmp slt i32 %111, 10
  br i1 %112, label %113, label %126

113:                                              ; preds = %110
  %114 = load ptr, ptr %8, align 8, !tbaa !55
  %115 = load i32, ptr %9, align 4, !tbaa !8
  %116 = sext i32 %115 to i64
  %117 = getelementptr inbounds [64 x i16], ptr %114, i64 %116
  %118 = load ptr, ptr %5, align 8, !tbaa !37
  %119 = getelementptr inbounds nuw %struct.my_coef_controller, ptr %118, i32 0, i32 5
  %120 = load i32, ptr %9, align 4, !tbaa !8
  %121 = sext i32 %120 to i64
  %122 = getelementptr inbounds [10 x ptr], ptr %119, i64 0, i64 %121
  store ptr %117, ptr %122, align 8, !tbaa !55
  br label %123

123:                                              ; preds = %113
  %124 = load i32, ptr %9, align 4, !tbaa !8
  %125 = add nsw i32 %124, 1
  store i32 %125, ptr %9, align 4, !tbaa !8
  br label %110, !llvm.loop !57

126:                                              ; preds = %110
  %127 = load ptr, ptr %5, align 8, !tbaa !37
  %128 = getelementptr inbounds nuw %struct.my_coef_controller, ptr %127, i32 0, i32 6
  %129 = getelementptr inbounds [10 x ptr], ptr %128, i64 0, i64 0
  store ptr null, ptr %129, align 8, !tbaa !50
  call void @llvm.lifetime.end.p0(i64 4, ptr %9) #4
  call void @llvm.lifetime.end.p0(i64 8, ptr %8) #4
  br label %130

130:                                              ; preds = %126, %101
  call void @llvm.lifetime.end.p0(i64 8, ptr %5) #4
  ret void
}