; Function Attrs: nounwind uwtable
define void @jinit_c_coef_controller(ptr noundef %0, i32 noundef %1) local_unnamed_addr #0 {
  %3 = getelementptr inbounds nuw i8, ptr %0, i64 72
  %4 = load i32, ptr %3, align 8, !tbaa !3
  %.not = icmp eq i32 %4, 8
  br i1 %.not, label %11, label %5

5:                                                ; preds = %2
  %6 = load ptr, ptr %0, align 8, !tbaa !24
  %7 = getelementptr inbounds nuw i8, ptr %6, i64 40
  store i32 15, ptr %7, align 8, !tbaa !25
  %8 = getelementptr inbounds nuw i8, ptr %6, i64 44
  store i32 %4, ptr %8, align 4, !tbaa !29
  %9 = load ptr, ptr %0, align 8, !tbaa !24
  %10 = load ptr, ptr %9, align 8, !tbaa !30
  tail call void %10(ptr noundef nonnull %0) #4
  br label %11

11:                                               ; preds = %5, %2
  %12 = getelementptr inbounds nuw i8, ptr %0, i64 8
  %13 = load ptr, ptr %12, align 8, !tbaa !31
  %14 = load ptr, ptr %13, align 8, !tbaa !32
  %15 = tail call ptr %14(ptr noundef nonnull %0, i32 noundef 1, i64 noundef 208) #4
  %16 = getelementptr inbounds nuw i8, ptr %15, i64 8
  tail call void @llvm.memset.p0.i64(ptr noundef nonnull align 8 dereferenceable(208) %16, i8 0, i64 200, i1 false)
  %17 = getelementptr inbounds nuw i8, ptr %0, i64 456
  store ptr %15, ptr %17, align 8, !tbaa !34
  store ptr @start_pass_coef, ptr %15, align 8, !tbaa !35
  %.not37 = icmp eq i32 %1, 0
  br i1 %.not37, label %52, label %18

18:                                               ; preds = %11
  %19 = getelementptr inbounds nuw i8, ptr %0, i64 76
  %20 = load i32, ptr %19, align 4, !tbaa !38
  %21 = icmp sgt i32 %20, 0
  br i1 %21, label %.lr.ph, label %.loopexit

.lr.ph:                                           ; preds = %18
  %22 = getelementptr inbounds nuw i8, ptr %0, i64 88
  %23 = load ptr, ptr %22, align 8, !tbaa !39
  %24 = getelementptr inbounds nuw i8, ptr %15, i64 128
  br label %25

25:                                               ; preds = %.lr.ph, %25
  %indvars.iv = phi i64 [ 0, %.lr.ph ], [ %indvars.iv.next, %25 ]
  %.03638 = phi ptr [ %23, %.lr.ph ], [ %48, %25 ]
  %26 = load ptr, ptr %12, align 8, !tbaa !31
  %27 = getelementptr inbounds nuw i8, ptr %26, i64 40
  %28 = load ptr, ptr %27, align 8, !tbaa !40
  %29 = getelementptr inbounds nuw i8, ptr %.03638, i64 28
  %30 = load i32, ptr %29, align 4, !tbaa !41
  %31 = zext i32 %30 to i64
  %32 = getelementptr inbounds nuw i8, ptr %.03638, i64 8
  %33 = load i32, ptr %32, align 8, !tbaa !43
  %34 = sext i32 %33 to i64
  %35 = tail call i64 @jround_up(i64 noundef %31, i64 noundef %34) #4
  %36 = trunc i64 %35 to i32
  %37 = getelementptr inbounds nuw i8, ptr %.03638, i64 32
  %38 = load i32, ptr %37, align 8, !tbaa !44
  %39 = zext i32 %38 to i64
  %40 = getelementptr inbounds nuw i8, ptr %.03638, i64 12
  %41 = load i32, ptr %40, align 4, !tbaa !45
  %42 = sext i32 %41 to i64
  %43 = tail call i64 @jround_up(i64 noundef %39, i64 noundef %42) #4
  %44 = trunc i64 %43 to i32
  %45 = load i32, ptr %40, align 4, !tbaa !45
  %46 = tail call ptr %28(ptr noundef nonnull %0, i32 noundef 1, i32 noundef 0, i32 noundef %36, i32 noundef %44, i32 noundef %45) #4
  %47 = getelementptr inbounds nuw [10 x ptr], ptr %24, i64 0, i64 %indvars.iv
  store ptr %46, ptr %47, align 8, !tbaa !46
  %indvars.iv.next = add nuw nsw i64 %indvars.iv, 1
  %48 = getelementptr inbounds nuw i8, ptr %.03638, i64 96
  %49 = load i32, ptr %19, align 4, !tbaa !38
  %50 = sext i32 %49 to i64
  %51 = icmp slt i64 %indvars.iv.next, %50
  br i1 %51, label %25, label %.loopexit, !llvm.loop !48

52:                                               ; preds = %11
  %53 = load ptr, ptr %12, align 8, !tbaa !31
  %54 = getelementptr inbounds nuw i8, ptr %53, i64 8
  %55 = load ptr, ptr %54, align 8, !tbaa !50
  %56 = tail call ptr %55(ptr noundef nonnull %0, i32 noundef 1, i64 noundef 1280) #4
  %57 = getelementptr inbounds nuw i8, ptr %15, i64 48
  br label %58

58:                                               ; preds = %52, %58
  %indvars.iv42 = phi i64 [ 0, %52 ], [ %indvars.iv.next43, %58 ]
  %59 = getelementptr inbounds nuw [64 x i16], ptr %56, i64 %indvars.iv42
  %60 = getelementptr inbounds nuw [10 x ptr], ptr %57, i64 0, i64 %indvars.iv42
  store ptr %59, ptr %60, align 8, !tbaa !51
  %indvars.iv.next43 = add nuw nsw i64 %indvars.iv42, 1
  %exitcond.not = icmp eq i64 %indvars.iv.next43, 10
  br i1 %exitcond.not, label %61, label %58, !llvm.loop !53

61:                                               ; preds = %58
  %62 = getelementptr inbounds nuw i8, ptr %15, i64 128
  store ptr null, ptr %62, align 8, !tbaa !46
  br label %.loopexit

.loopexit:                                        ; preds = %25, %18, %61
  ret void
}